target datalayout = "e-m:e-p270:32:32-p271:32:32-p272:64:64-i64:64-i128:128-f80:128-n8:16:32:64-S128"
target triple = "x86_64-pc-linux-gnu"

%struct.AVCodecContext = type { ptr, i32, i32, ptr, i32, i32, ptr, ptr, ptr, i64, i32, i32, ptr, i32, %struct.AVRational, %struct.AVRational, %struct.AVRational, i32, i32, i32, i32, i32, %struct.AVRational, i32, i32, i32, i32, i32, i32, i32, i32, i32, i32, i32, ptr, ptr, i32, float, float, float, float, float, float, float, float, float, i32, i32, i32, i32, i32, i32, i32, i32, i32, i32, i32, i32, ptr, ptr, ptr, i32, i32, i32, i32, i32, i32, i32, i32, i32, i32, %struct.AVChannelLayout, i32, i32, i32, i32, i32, i32, i32, i32, ptr, i32, i32, i32, float, float, i32, i32, i32, i32, i32, ptr, i64, i64, float, float, i32, i32, ptr, ptr, i32, i32, i32, i32, i32, ptr, ptr, ptr, ptr, i32, i32, [8 x i64], i32, i32, i32, i32, i32, i32, i32, ptr, ptr, i32, i32, i32, i32, i32, i32, i32, i32, i32, i32, ptr, ptr, i32, i32, ptr, ptr, ptr, ptr, i32, i32, i64, i32, i32, i64, ptr, i64, ptr, i32, ptr, i32 }
%struct.AVRational = type { i32, i32 }
%struct.AVChannelLayout = type { i32, i32, %union.anon, ptr }
%union.anon = type { i64 }

@h263_hwaccel_pixfmt_list_420 = internal constant [3 x i32] [i32 44, i32 0, i32 -1], align 4

; Function Attrs: nounwind uwtable
define internal i32 @h263_get_format(ptr noundef %0) #3 {
  %2 = alloca i32, align 4
  %3 = alloca ptr, align 8
  store ptr %0, ptr %3, align 8, !tbaa !4
  %4 = load ptr, ptr %3, align 8, !tbaa !4
  %5 = getelementptr inbounds nuw %struct.AVCodecContext, ptr %4, i32 0, i32 115
  %6 = load i32, ptr %5, align 4, !tbaa !80
  %7 = icmp sgt i32 %6, 8
  br i1 %7, label %8, label %12

8:                                                ; preds = %1
  %9 = load ptr, ptr %3, align 8, !tbaa !4
  %10 = getelementptr inbounds nuw %struct.AVCodecContext, ptr %9, i32 0, i32 23
  %11 = load i32, ptr %10, align 8, !tbaa !79
  store i32 %11, ptr %2, align 4
  br label %33

12:                                               ; preds = %1
  %13 = load ptr, ptr %3, align 8, !tbaa !4
  %14 = getelementptr inbounds nuw %struct.AVCodecContext, ptr %13, i32 0, i32 4
  %15 = load i32, ptr %14, align 8, !tbaa !81
  %16 = icmp eq i32 %15, 4
  br i1 %16, label %27, label %17

17:                                               ; preds = %12
  %18 = load ptr, ptr %3, align 8, !tbaa !4
  %19 = getelementptr inbounds nuw %struct.AVCodecContext, ptr %18, i32 0, i32 4
  %20 = load i32, ptr %19, align 8, !tbaa !81
  %21 = icmp eq i32 %20, 19
  br i1 %21, label %27, label %22

22:                                               ; preds = %17
  %23 = load ptr, ptr %3, align 8, !tbaa !4
  %24 = getelementptr inbounds nuw %struct.AVCodecContext, ptr %23, i32 0, i32 4
  %25 = load i32, ptr %24, align 8, !tbaa !81
  %26 = icmp eq i32 %25, 12
  br i1 %26, label %27, label %32

27:                                               ; preds = %22, %17, %12
  %28 = load ptr, ptr %3, align 8, !tbaa !4
  %29 = call i32 @ff_get_format(ptr noundef %28, ptr noundef @h263_hwaccel_pixfmt_list_420)
  %30 = load ptr, ptr %3, align 8, !tbaa !4
  %31 = getelementptr inbounds nuw %struct.AVCodecContext, ptr %30, i32 0, i32 23
  store i32 %29, ptr %31, align 8, !tbaa !79
  store i32 %29, ptr %2, align 4
  br label %33

32:                                               ; preds = %22
  store i32 0, ptr %2, align 4
  br label %33

33:                                               ; preds = %32, %27, %8
  %34 = load i32, ptr %2, align 4
  ret i32 %34
}