; Function Attrs: nounwind uwtable
define internal fastcc i32 @h263_get_format(ptr noundef %0) unnamed_addr #3 {
  %2 = getelementptr inbounds nuw i8, ptr %0, i64 652
  %3 = load i32, ptr %2, align 4, !tbaa !76
  %4 = icmp sgt i32 %3, 8
  br i1 %4, label %5, label %8

5:                                                ; preds = %1
  %6 = getelementptr inbounds nuw i8, ptr %0, i64 136
  %7 = load i32, ptr %6, align 8, !tbaa !75
  br label %14

8:                                                ; preds = %1
  %9 = getelementptr inbounds nuw i8, ptr %0, i64 24
  %10 = load i32, ptr %9, align 8, !tbaa !77
  switch i32 %10, label %14 [
    i32 4, label %11
    i32 19, label %11
    i32 12, label %11
  ]

11:                                               ; preds = %8, %8, %8
  %12 = tail call i32 @ff_get_format(ptr noundef nonnull %0, ptr noundef nonnull @h263_hwaccel_pixfmt_list_420) #6
  %13 = getelementptr inbounds nuw i8, ptr %0, i64 136
  store i32 %12, ptr %13, align 8, !tbaa !75
  br label %14

14:                                               ; preds = %8, %11, %5
  %.0 = phi i32 [ %7, %5 ], [ %12, %11 ], [ 0, %8 ]
  ret i32 %.0
}